#include <math.h>
#include <stdio.h>
#include <stdlib.h>
#include <string.h>

int main(){
	int n,i,p,sum,m,k;
	sum=1;
	int a[1000],b[1000];
	scanf("%d %d",&n,&k);
	for(i=0;i<n;i++){
		scanf("%d",&a[i]);
		b[i]=a[i];
	}
	for(p=0;p<n;p++){
		for(i=0;i<n;i++){
			if(b[p]+a[i]==k){
				m=0;
			}
			else{
				m=1;
			}
			sum*=m;
		}
	}
	if(sum==0){
		printf("yes");
	}
	else{
		printf("no");
	}
	return 0;
}
